; Function Attrs: nounwind uwtable
define internal noalias noundef ptr @_io__IOBase_truncate(ptr readnone captures(none) %0, ptr noundef readonly captures(none) %1, ptr noundef %2, i64 noundef %3, ptr noundef %4) #0 {
  %6 = alloca [1 x ptr], align 8
  call void @llvm.lifetime.start.p0(i64 8, ptr nonnull %6) #6
  %7 = icmp eq ptr %4, null
  %8 = icmp ult i64 %3, 2
  %or.cond3 = and i1 %8, %7
  %9 = icmp ne ptr %2, null
  %or.cond5 = and i1 %9, %or.cond3
  br i1 %or.cond5, label %.thread, label %10

10:                                               ; preds = %5
  %11 = call ptr @_PyArg_UnpackKeywords(ptr noundef %2, i64 noundef %3, ptr noundef null, ptr noundef %4, ptr noundef nonnull @_io__IOBase_truncate._parser, i32 noundef 0, i32 noundef 1, i32 noundef 0, i32 noundef 0, ptr noundef nonnull %6) #6
  %.not = icmp eq ptr %11, null
  br i1 %.not, label %15, label %.thread

.thread:                                          ; preds = %10, %5
  %12 = getelementptr i8, ptr %1, i64 888
  %.val = load ptr, ptr %12, align 8, !tbaa !32
  %13 = getelementptr i8, ptr %.val, i64 32
  %.val.val = load ptr, ptr %13, align 8, !tbaa !41
  %14 = getelementptr i8, ptr %.val.val, i64 8
  %.val.val.val = load ptr, ptr %14, align 8, !tbaa !13
  call void @PyErr_SetString(ptr noundef %.val.val.val, ptr noundef nonnull @.str.10) #6
  br label %15

15:                                               ; preds = %10, %.thread
  call void @llvm.lifetime.end.p0(i64 8, ptr nonnull %6) #6
  ret ptr null
}